Certificate:
    Data:
        Version: 3 (0x2)
        Serial Number: 2 (0x2)
        Signature Algorithm: sha1WithRSAEncryption
        Issuer: C=UK, ST=Gloucestershire, L=Tetbury, O=TETBURY SOFTWARE SERVICES Ltd, OU=security, CN=Tetburyss.co.uk/emailAddress=security@tetburyss.co.uk
        Validity
            Not Before: Oct 22 06:48:49 2013 GMT
            Not After : Oct 20 06:48:49 2023 GMT
        Subject: C=UK, ST=Gloucestershire, O=TETBURY SOFTWARE SERVICES Ltd, OU=Security L2, CN=Tetburyss.co.uk/emailAddress=security@tetburyss.co.uk
        Subject Public Key Info:
            Public Key Algorithm: rsaEncryption
                Public-Key: (4096 bit)
                Modulus:
                    00:ae:0a:9c:73:19:fc:0a:f9:ca:77:7f:c9:e2:0f:
                    fa:b2:7c:16:99:fb:ca:ec:cd:c8:7c:98:25:95:6f:
                    90:db:c4:d1:34:f1:e2:60:76:c2:6b:b3:68:07:e7:
                    dc:bd:86:f4:0c:66:3f:ec:e5:b1:2d:69:65:96:b4:
                    b9:9b:ef:55:66:95:7d:ec:7c:60:83:5e:7a:f4:8f:
                    e0:c4:e3:a8:70:8a:ef:63:4d:72:13:41:07:20:35:
                    6d:ac:59:f9:1c:3d:ba:8e:6b:f0:c8:43:11:07:7b:
                    77:47:f1:d1:ff:29:93:88:cf:65:71:37:67:1c:77:
                    69:d3:6f:58:1b:bd:31:c3:8b:c6:a9:d0:95:e9:d7:
                    b9:10:45:98:67:59:02:07:5b:aa:8b:06:9e:13:8b:
                    12:2b:e6:26:a0:21:f9:00:90:9d:26:9c:b1:19:db:
                    8f:a5:a3:b0:fd:00:cf:74:7f:db:34:5b:cd:c0:00:
                    f6:69:da:1b:f6:c6:1c:17:df:f3:14:e5:d9:cb:47:
                    8a:94:4b:79:f7:b3:3a:9e:35:a4:01:ff:d9:a8:e9:
                    4f:ec:e9:ba:f0:eb:86:f6:2d:a4:56:2a:1e:e2:e0:
                    b8:62:8e:d8:48:98:8d:e5:a0:ec:43:2a:c8:df:fd:
                    3f:25:1e:09:6c:fb:2b:93:03:db:33:0c:71:30:ad:
                    1f:ee:95:bc:7f:e2:48:8d:01:e5:56:79:89:ca:03:
                    59:2c:09:54:bc:76:cd:0f:b4:f1:b1:40:e2:7c:e2:
                    9e:d6:c4:2b:84:1e:eb:d5:bb:5f:df:65:75:56:f0:
                    e1:66:7f:f6:ec:63:15:08:c2:bb:21:4c:73:15:c9:
                    2a:ad:a6:20:0b:1a:35:ad:5f:21:cb:3f:d4:fd:55:
                    44:77:d5:82:5e:48:87:04:d9:b8:8a:64:e0:ce:d4:
                    a6:d2:4b:a2:47:b2:3d:1b:97:26:13:65:9c:55:c5:
                    8e:87:73:46:ef:c7:24:e4:aa:8d:84:fc:12:0c:d0:
                    80:da:47:82:7f:b6:64:40:56:16:e0:71:60:2a:88:
                    69:ee:e2:94:bd:ed:24:d6:d9:fb:c0:90:2c:1e:51:
                    d9:30:87:01:0a:82:7d:55:81:93:44:fe:d1:ba:31:
                    6d:17:92:a7:17:a5:a9:2a:c1:92:61:30:f4:f4:45:
                    ab:40:27:5e:dd:27:a0:16:c4:dd:51:5f:74:01:44:
                    0e:5b:b6:e8:fc:65:87:03:67:e2:db:0d:30:fa:13:
                    fd:eb:08:2c:e1:47:b3:53:c7:40:c4:ca:40:dc:1e:
                    19:96:dc:08:30:ac:ed:7c:55:2d:30:e6:59:71:7c:
                    fc:cb:ff:81:9f:d5:4e:7f:a4:e2:58:e0:22:7c:47:
                    4d:b5:bd
                Exponent: 65537 (0x10001)
        X509v3 extensions:
            X509v3 Subject Key Identifier: 
                F8:BF:99:BC:6D:0B:B2:6E:BF:75:9E:2B:8E:D1:52:D1:A1:3B:68:75
            X509v3 Authority Key Identifier: 
                keyid:58:BB:3B:9C:DE:99:F1:CE:F8:F0:67:18:FB:BE:25:C6:92:1A:45:80

            X509v3 Basic Constraints: 
                CA:TRUE
    Signature Algorithm: sha1WithRSAEncryption
        71:46:39:8f:5c:12:d1:52:4c:da:e0:93:6b:e3:ec:d3:4a:85:
        90:46:81:67:ec:b5:5c:bb:29:46:83:94:91:86:95:26:44:b8:
        6e:59:d4:f6:26:8a:ad:57:9b:b5:fb:3d:e4:6b:e2:3c:c9:45:
        9a:44:cb:82:1d:ed:67:ed:45:05:16:bc:05:ac:d7:82:53:60:
        7b:e6:c3:69:84:5d:e0:4c:4f:35:38:70:4b:68:84:d4:af:6e:
        9a:3a:56:56:57:e9:06:d4:7d:f9:f4:82:32:be:ba:bc:54:60:
        86:60:94:c7:db:c9:b4:b9:2a:8c:8b:bb:fe:8f:a5:40:70:bd:
        52:20:8d:1a:48:58:32:94:1d:ac:8f:a5:b1:1f:12:36:6f:67:
        55:ad:c9:41:bc:4d:a3:8a:18:f6:19:72:55:61:c6:1b:47:ba:
        2d:b1:cd:02:a3:9e:e1:c2:c9:85:b8:bb:84:1b:31:92:38:d3:
        20:7c:96:ca:2f:3d:10:63:8e:63:aa:b8:8d:fd:4e:f0:b1:1b:
        79:3e:9c:1e:22:30:50:20:e3:7a:62:5f:3c:1b:33:b9:3c:d5:
        34:43:24:a9:92:f3:5c:14:8a:0a:35:e2:17:43:e0:db:35:b1:
        03:b5:bc:ed:71:ea:e9:98:e6:28:1c:6b:f8:33:36:32:26:3e:
        58:d3:0b:ee:cf:95:5e:08:f6:c6:3c:91:fd:7d:d3:90:e9:d8:
        91:4c:31:53:7d:ce:c8:c5:4c:05:30:63:37:59:8a:2a:bd:2a:
        a7:50:87:f2:61:ce:53:ba:ef:fb:24:a4:74:fe:da:06:73:1c:
        1d:ec:03:b2:9f:23:d8:ac:a2:ce:a4:fd:70:a5:38:e4:48:1a:
        83:09:35:da:34:5b:94:8e:d4:fc:75:12:d5:58:a7:42:d5:9f:
        72:e1:35:b3:50:76:02:dc:28:83:32:42:dc:15:b4:77:d5:b0:
        d5:fc:85:9b:fd:25:2f:23:93:04:a0:7b:ad:9c:85:cf:13:b2:
        2c:0a:ab:39:db:50:5f:38:46:9c:4d:a9:3b:fa:fe:09:f2:41:
        e1:99:9c:c9:38:3a:7f:7e:ee:c7:46:01:2c:18:e6:f5:f9:c3:
        db:21:9d:97:0f:12:fa:ad:0c:9c:0f:ff:db:03:9a:9a:64:b3:
        51:6e:2f:1d:1e:59:4d:65:a3:38:a7:a3:c4:58:52:92
-----BEGIN CERTIFICATE-----
MIIF7DCCBBSgAwIBAgIBAjANBgkqhkiG9w0BAQUFADCBtzELMAkGA1UEBhMCVUsx
GDAWBgNVBAgMD0dsb3VjZXN0ZXJzaGlyZTEQMA4GA1UEBwwHVGV0YnVyeTEmMCQG
A1UECgwdVEVUQlVSWSBTT0ZUV0FSRSBTRVJWSUNFUyBMdGQxETAPBgNVBAsMCHNl
Y3VyaXR5MRgwFgYDVQQDDA9UZXRidXJ5c3MuY28udWsxJzAlBgkqhkiG9w0BCQEW
GHNlY3VyaXR5QHRldGJ1cnlzcy5jby51azAeFw0xMzEwMjIwNjQ4NDlaFw0yMzEw
MjAwNjQ4NDlaMIGoMQswCQYDVQQGEwJVSzEYMBYGA1UECAwPR2xvdWNlc3RlcnNo
aXJlMSYwJAYDVQQKDB1URVRCVVJZIFNPRlRXQVJFIFNFUlZJQ0VTIEx0ZDEUMBIG
A1UECwwLU2VjdXJpdHkgTDIxGDAWBgNVBAMMD1RldGJ1cnlzcy5jby51azEnMCUG
CSqGSIb3DQEJARYYc2VjdXJpdHlAdGV0YnVyeXNzLmNvLnVrMIICIjANBgkqhkiG
9w0BAQEFAAOCAg8AMIICCgKCAgEArgqccxn8CvnKd3/J4g/6snwWmfvK7M3IfJgl
lW+Q28TRNPHiYHbCa7NoB+fcvYb0DGY/7OWxLWlllrS5m+9VZpV97Hxgg1569I/g
xOOocIrvY01yE0EHIDVtrFn5HD26jmvwyEMRB3t3R/HR/ymTiM9lcTdnHHdp029Y
G70xw4vGqdCV6de5EEWYZ1kCB1uqiwaeE4sSK+YmoCH5AJCdJpyxGduPpaOw/QDP
dH/bNFvNwAD2adob9sYcF9/zFOXZy0eKlEt597M6njWkAf/ZqOlP7Om68OuG9i2k
Vioe4uC4Yo7YSJiN5aDsQyrI3/0/JR4JbPsrkwPbMwxxMK0f7pW8f+JIjQHlVnmJ
ygNZLAlUvHbND7TxsUDifOKe1sQrhB7r1btf32V1VvDhZn/27GMVCMK7IUxzFckq
raYgCxo1rV8hyz/U/VVEd9WCXkiHBNm4imTgztSm0kuiR7I9G5cmE2WcVcWOh3NG
78ck5KqNhPwSDNCA2keCf7ZkQFYW4HFgKohp7uKUve0k1tn7wJAsHlHZMIcBCoJ9
VYGTRP7RujFtF5KnF6WpKsGSYTD09EWrQCde3SegFsTdUV90AUQOW7bo/GWHA2fi
2w0w+hP96wgs4UezU8dAxMpA3B4ZltwIMKztfFUtMOZZcXz8y/+Bn9VOf6TiWOAi
fEdNtb0CAwEAAaNQME4wHQYDVR0OBBYEFPi/mbxtC7Juv3WeK47RUtGhO2h1MB8G
A1UdIwQYMBaAFFi7O5zemfHO+PBnGPu+JcaSGkWAMAwGA1UdEwQFMAMBAf8wDQYJ
KoZIhvcNAQEFBQADggHBAHFGOY9cEtFSTNrgk2vj7NNKhZBGgWfstVy7KUaDlJGG
lSZEuG5Z1PYmiq1Xm7X7PeRr4jzJRZpEy4Id7WftRQUWvAWs14JTYHvmw2mEXeBM
TzU4cEtohNSvbpo6VlZX6QbUffn0gjK+urxUYIZglMfbybS5KoyLu/6PpUBwvVIg
jRpIWDKUHayPpbEfEjZvZ1WtyUG8TaOKGPYZclVhxhtHui2xzQKjnuHCyYW4u4Qb
MZI40yB8lsovPRBjjmOquI39TvCxG3k+nB4iMFAg43piXzwbM7k81TRDJKmS81wU
igo14hdD4Ns1sQO1vO1x6umY5igca/gzNjImPljTC+7PlV4I9sY8kf1905Dp2JFM
MVN9zsjFTAUwYzdZiiq9KqdQh/JhzlO67/skpHT+2gZzHB3sA7KfI9isos6k/XCl
OORIGoMJNdo0W5SO1Px1EtVYp0LVn3LhNbNQdgLcKIMyQtwVtHfVsNX8hZv9JS8j
kwSge62chc8TsiwKqznbUF84RpxNqTv6/gnyQeGZnMk4On9+7sdGASwY5vX5w9sh
nZcPEvqtDJwP/9sDmppks1FuLx0eWU1lozino8RYUpI=
-----END CERTIFICATE-----
-----BEGIN CERTIFICATE-----
MIIFwzCCA+ugAwIBAgIJAMaOtMvDRNbkMA0GCSqGSIb3DQEBBQUAMIG3MQswCQYD
VQQGEwJVSzEYMBYGA1UECAwPR2xvdWNlc3RlcnNoaXJlMRAwDgYDVQQHDAdUZXRi
dXJ5MSYwJAYDVQQKDB1URVRCVVJZIFNPRlRXQVJFIFNFUlZJQ0VTIEx0ZDERMA8G
A1UECwwIc2VjdXJpdHkxGDAWBgNVBAMMD1RldGJ1cnlzcy5jby51azEnMCUGCSqG
SIb3DQEJARYYc2VjdXJpdHlAdGV0YnVyeXNzLmNvLnVrMB4XDTEzMTAyMjA2MTY1
MVoXDTIzMTAyMDA2MTY1MVowgbcxCzAJBgNVBAYTAlVLMRgwFgYDVQQIDA9HbG91
Y2VzdGVyc2hpcmUxEDAOBgNVBAcMB1RldGJ1cnkxJjAkBgNVBAoMHVRFVEJVUlkg
U09GVFdBUkUgU0VSVklDRVMgTHRkMREwDwYDVQQLDAhzZWN1cml0eTEYMBYGA1UE
AwwPVGV0YnVyeXNzLmNvLnVrMScwJQYJKoZIhvcNAQkBFhhzZWN1cml0eUB0ZXRi
dXJ5c3MuY28udWswggHiMA0GCSqGSIb3DQEBAQUAA4IBzwAwggHKAoIBwQC3Ell/
X71IAve+1QzgTZ0rVpVJA58RHy0/j5q1jp6ia7NT6ODAhplpSu6Ooyym8ps1hi+h
5XA1yEOKukuxBlR6oSpS4nboVcdNv6Dm0dUWuOZvVcu1hxcawQ+UEiarZkQHGEXM
wiHm3M96KAWcgxDB748p+l8q5lFBPiZzWr3s8x7nvV3WR3aIgEEpFFAxjpz0mieU
7rIF/fVxAH9J6Ge73e2Cabv7M6C2fzDK8ntklUS5BJ3x01sfeJDStTTGap7ZLy7Z
qvxKOsmqyxJW30+Q/b29O7MYmhGSZopdgoC5rxk0+3e3eZZMzcvk1x/Eh42K+XRH
n90geBsmMwy8nW78h9T37lkshbgDamn0cPr/kdKtmffbiThFXWcMTQOyPS/QyVIe
E8BGEX8jnOlaGkS9Jem4gzUgMl2FpAND6W11jqgXRbc9NJk8xqJaF6A7IPieZzgF
yDavXUWCHvCf0j136czkTQPbWFdmvYl3H6ED6TV+1Fq3MWsenIQld9yN9I0+FFiT
kDkPJMJibg0W11FUFLEsXlswpXeIo69zbzwzR16UriYsQ4fWbLSfUqZzzpQJ+dRu
s5yLaqIo/JdAIi6NAgMBAAGjUDBOMB0GA1UdDgQWBBRYuzuc3pnxzvjwZxj7viXG
khpFgDAfBgNVHSMEGDAWgBRYuzuc3pnxzvjwZxj7viXGkhpFgDAMBgNVHRMEBTAD
AQH/MA0GCSqGSIb3DQEBBQUAA4IBwQChHjQc5VibmSWf+Kr4qz9Zb9yiuBoqiZxY
X50M/G445dIxcEjkaUnwsRPmdDP95ZrVagkz1oJxYGuHjJ07jZCbddmj9rNl6qr/
MvaXGOyJQeTcoRF4+mkzyWwK7Llj2tqlB3mZS7NPJN9K/t6BziuG7N6ajZD9+cTG
1j16ueJ2h+Ho5WaXelvis0t9kPn9W+fOQEyT3iGtsjSzE/jR9lVxbIaKj4xoh+AG
P2fbnwpZ1Ybyp7fTC08Kwp8uEyvhadvyWZvBr1lgmuhgFKb6c8cC7COsJDTOxmYk
L9Bhxccut+fYSin/eTIL60ApChIpqSGhNq1EIrEpmqqD+lul0svgXyNT4yNE4jDH
TJ3LuZIjSu43mNbTGfyK3HGJKAd1N2zFCheGNCkO5ZC9Oz5hJskzOIhMiQDmnoEi
HtZst1h+HXrtcK2ndVLgynrR2gzrLLXPZdLFnQ3cOIUYYwmjBH2DTDUHNkpEzwc7
w8MI0SWZmkUdy/usch5TTLaKYZOlLJVPcO2y5Nnmn7FOo5+g2381RiI7uzKNVN5J
NuzT/Kfj9oMxT+drwTHiSBDYPIo3gHbWZN4t9PNnmgje6spAC371
-----END CERTIFICATE-----
